target datalayout = "e-m:e-p270:32:32-p271:32:32-p272:64:64-i64:64-i128:128-f80:128-n8:16:32:64-S128"
target triple = "x86_64-pc-linux-gnu"

%struct.lua_State = type { i8, i8, i8, i8, i8, i8, i8, ptr, ptr, ptr, ptr, ptr, ptr, ptr, ptr, i32, i32, i16, i16, i32, ptr, ptr, ptr, ptr, ptr }
%struct.CallInfo = type { ptr, ptr, ptr, ptr, i32, i32 }
%struct.lua_TValue = type { %union.Value, [1 x i32], i32 }
%union.Value = type { ptr }

; Function Attrs: mustprogress uwtable
define internal noundef i32 @_ZL12luaB_xpcallyP9lua_State(ptr noundef %0) #0 {
  %2 = alloca i32, align 4
  %3 = alloca ptr, align 8
  %4 = alloca ptr, align 8
  %5 = alloca ptr, align 8
  %6 = alloca i32, align 4
  store ptr %0, ptr %3, align 8
  %7 = load ptr, ptr %3, align 8
  call void @_Z14luaL_checktypeP9lua_Stateii(ptr noundef %7, i32 noundef 2, i32 noundef 7)
  %8 = load ptr, ptr %3, align 8
  call void @_Z13lua_pushvalueP9lua_Statei(ptr noundef %8, i32 noundef 1)
  %9 = load ptr, ptr %3, align 8
  call void @_Z13lua_pushvalueP9lua_Statei(ptr noundef %9, i32 noundef 2)
  %10 = load ptr, ptr %3, align 8
  call void @_Z11lua_replaceP9lua_Statei(ptr noundef %10, i32 noundef 1)
  %11 = load ptr, ptr %3, align 8
  call void @_Z11lua_replaceP9lua_Statei(ptr noundef %11, i32 noundef 2)
  %12 = load ptr, ptr %3, align 8
  %13 = getelementptr inbounds %struct.lua_State, ptr %12, i32 0, i32 10
  %14 = load ptr, ptr %13, align 8
  %15 = getelementptr inbounds %struct.CallInfo, ptr %14, i32 0, i32 5
  %16 = load i32, ptr %15, align 4
  %17 = or i32 %16, 2
  store i32 %17, ptr %15, align 4
  %18 = load ptr, ptr %3, align 8
  %19 = getelementptr inbounds %struct.lua_State, ptr %18, i32 0, i32 8
  %20 = load ptr, ptr %19, align 8
  store ptr %20, ptr %4, align 8
  %21 = load ptr, ptr %3, align 8
  %22 = getelementptr inbounds %struct.lua_State, ptr %21, i32 0, i32 8
  %23 = load ptr, ptr %22, align 8
  %24 = getelementptr inbounds %struct.lua_TValue, ptr %23, i64 1
  store ptr %24, ptr %5, align 8
  %25 = load ptr, ptr %3, align 8
  %26 = getelementptr inbounds %struct.lua_State, ptr %25, i32 0, i32 18
  %27 = load i16, ptr %26, align 2
  %28 = add i16 %27, 1
  store i16 %28, ptr %26, align 2
  %29 = load ptr, ptr %3, align 8
  %30 = load ptr, ptr %5, align 8
  %31 = load ptr, ptr %5, align 8
  %32 = load ptr, ptr %3, align 8
  %33 = getelementptr inbounds %struct.lua_State, ptr %32, i32 0, i32 12
  %34 = load ptr, ptr %33, align 8
  %35 = ptrtoint ptr %31 to i64
  %36 = ptrtoint ptr %34 to i64
  %37 = sub i64 %35, %36
  %38 = load ptr, ptr %4, align 8
  %39 = load ptr, ptr %3, align 8
  %40 = getelementptr inbounds %struct.lua_State, ptr %39, i32 0, i32 12
  %41 = load ptr, ptr %40, align 8
  %42 = ptrtoint ptr %38 to i64
  %43 = ptrtoint ptr %41 to i64
  %44 = sub i64 %42, %43
  %45 = call noundef i32 @_Z10luaD_pcallP9lua_StatePFvS0_PvES1_ll(ptr noundef %29, ptr noundef @_ZL13luaB_pcallrunP9lua_StatePv, ptr noundef %30, i64 noundef %37, i64 noundef %44)
  store i32 %45, ptr %6, align 4
  %46 = load ptr, ptr %3, align 8
  %47 = getelementptr inbounds %struct.lua_State, ptr %46, i32 0, i32 18
  %48 = load i16, ptr %47, align 2
  %49 = add i16 %48, -1
  store i16 %49, ptr %47, align 2
  %50 = load ptr, ptr %3, align 8
  %51 = getelementptr inbounds %struct.lua_State, ptr %50, i32 0, i32 10
  %52 = load ptr, ptr %51, align 8
  %53 = getelementptr inbounds %struct.CallInfo, ptr %52, i32 0, i32 2
  %54 = load ptr, ptr %53, align 8
  %55 = load ptr, ptr %3, align 8
  %56 = getelementptr inbounds %struct.lua_State, ptr %55, i32 0, i32 7
  %57 = load ptr, ptr %56, align 8
  %58 = icmp ult ptr %54, %57
  br i1 %58, label %59, label %67

59:                                               ; preds = %1
  %60 = load ptr, ptr %3, align 8
  %61 = getelementptr inbounds %struct.lua_State, ptr %60, i32 0, i32 7
  %62 = load ptr, ptr %61, align 8
  %63 = load ptr, ptr %3, align 8
  %64 = getelementptr inbounds %struct.lua_State, ptr %63, i32 0, i32 10
  %65 = load ptr, ptr %64, align 8
  %66 = getelementptr inbounds %struct.CallInfo, ptr %65, i32 0, i32 2
  store ptr %62, ptr %66, align 8
  br label %67

67:                                               ; preds = %59, %1
  %68 = load i32, ptr %6, align 4
  %69 = icmp eq i32 %68, 0
  br i1 %69, label %70, label %83

70:                                               ; preds = %67
  %71 = load ptr, ptr %3, align 8
  %72 = getelementptr inbounds %struct.lua_State, ptr %71, i32 0, i32 3
  %73 = load i8, ptr %72, align 1
  %74 = zext i8 %73 to i32
  %75 = icmp eq i32 %74, 1
  br i1 %75, label %82, label %76

76:                                               ; preds = %70
  %77 = load ptr, ptr %3, align 8
  %78 = getelementptr inbounds %struct.lua_State, ptr %77, i32 0, i32 3
  %79 = load i8, ptr %78, align 1
  %80 = zext i8 %79 to i32
  %81 = icmp eq i32 %80, 6
  br i1 %81, label %82, label %83

82:                                               ; preds = %76, %70
  store i32 -1, ptr %2, align 4
  br label %92

83:                                               ; preds = %76, %67
  %84 = load ptr, ptr %3, align 8
  call void @_Z17lua_rawcheckstackP9lua_Statei(ptr noundef %84, i32 noundef 1)
  %85 = load ptr, ptr %3, align 8
  %86 = load i32, ptr %6, align 4
  %87 = icmp eq i32 %86, 0
  %88 = zext i1 %87 to i32
  call void @_Z15lua_pushbooleanP9lua_Statei(ptr noundef %85, i32 noundef %88)
  %89 = load ptr, ptr %3, align 8
  call void @_Z11lua_replaceP9lua_Statei(ptr noundef %89, i32 noundef 1)
  %90 = load ptr, ptr %3, align 8
  %91 = call noundef i32 @_Z10lua_gettopP9lua_State(ptr noundef %90)
  store i32 %91, ptr %2, align 4
  br label %92

92:                                               ; preds = %83, %82
  %93 = load i32, ptr %2, align 4
  ret i32 %93
}