; Function Attrs: mustprogress uwtable
define internal noundef i32 @_ZL12luaB_xpcallyP9lua_State(ptr noundef %0) #0 {
  tail call void @_Z14luaL_checktypeP9lua_Stateii(ptr noundef %0, i32 noundef 2, i32 noundef 7)
  tail call void @_Z13lua_pushvalueP9lua_Statei(ptr noundef %0, i32 noundef 1)
  tail call void @_Z13lua_pushvalueP9lua_Statei(ptr noundef %0, i32 noundef 2)
  tail call void @_Z11lua_replaceP9lua_Statei(ptr noundef %0, i32 noundef 1)
  tail call void @_Z11lua_replaceP9lua_Statei(ptr noundef %0, i32 noundef 2)
  %2 = getelementptr inbounds i8, ptr %0, i64 32
  %3 = load ptr, ptr %2, align 8
  %4 = getelementptr inbounds i8, ptr %3, i64 36
  %5 = load i32, ptr %4, align 4
  %6 = or i32 %5, 2
  store i32 %6, ptr %4, align 4
  %7 = getelementptr inbounds i8, ptr %0, i64 16
  %8 = load ptr, ptr %7, align 8
  %9 = getelementptr inbounds i8, ptr %8, i64 16
  %10 = getelementptr inbounds i8, ptr %0, i64 82
  %11 = load i16, ptr %10, align 2
  %12 = add i16 %11, 1
  store i16 %12, ptr %10, align 2
  %13 = getelementptr inbounds i8, ptr %0, i64 48
  %14 = load ptr, ptr %13, align 8
  %15 = ptrtoint ptr %9 to i64
  %16 = ptrtoint ptr %14 to i64
  %17 = sub i64 %15, %16
  %18 = ptrtoint ptr %8 to i64
  %19 = sub i64 %18, %16
  %20 = tail call noundef i32 @_Z10luaD_pcallP9lua_StatePFvS0_PvES1_ll(ptr noundef %0, ptr noundef nonnull @_ZL13luaB_pcallrunP9lua_StatePv, ptr noundef nonnull %9, i64 noundef %17, i64 noundef %19)
  %21 = load i16, ptr %10, align 2
  %22 = add i16 %21, -1
  store i16 %22, ptr %10, align 2
  %23 = load ptr, ptr %2, align 8
  %24 = getelementptr inbounds i8, ptr %23, i64 16
  %25 = load ptr, ptr %24, align 8
  %26 = getelementptr inbounds i8, ptr %0, i64 8
  %27 = load ptr, ptr %26, align 8
  %28 = icmp ult ptr %25, %27
  br i1 %28, label %29, label %30

29:                                               ; preds = %1
  store ptr %27, ptr %24, align 8
  br label %30

30:                                               ; preds = %29, %1
  %31 = icmp eq i32 %20, 0
  br i1 %31, label %32, label %35

32:                                               ; preds = %30
  %33 = getelementptr inbounds i8, ptr %0, i64 3
  %34 = load i8, ptr %33, align 1
  switch i8 %34, label %35 [
    i8 1, label %38
    i8 6, label %38
  ]

35:                                               ; preds = %32, %30
  tail call void @_Z17lua_rawcheckstackP9lua_Statei(ptr noundef nonnull %0, i32 noundef 1)
  %36 = zext i1 %31 to i32
  tail call void @_Z15lua_pushbooleanP9lua_Statei(ptr noundef nonnull %0, i32 noundef %36)
  tail call void @_Z11lua_replaceP9lua_Statei(ptr noundef nonnull %0, i32 noundef 1)
  %37 = tail call noundef i32 @_Z10lua_gettopP9lua_State(ptr noundef nonnull %0)
  br label %38

38:                                               ; preds = %32, %32, %35
  %.0 = phi i32 [ %37, %35 ], [ -1, %32 ], [ -1, %32 ]
  ret i32 %.0
}